target datalayout = "e-m:e-p270:32:32-p271:32:32-p272:64:64-i64:64-i128:128-f80:128-n8:16:32:64-S128"
target triple = "x86_64-pc-linux-gnu"

; Function Attrs: nounwind uwtable
define dso_local ptr @luaGetStringSds(ptr noundef %0, i32 noundef %1) #0 {
  %3 = alloca ptr, align 8
  %4 = alloca ptr, align 8
  %5 = alloca i32, align 4
  %6 = alloca i64, align 8
  %7 = alloca ptr, align 8
  %8 = alloca ptr, align 8
  store ptr %0, ptr %4, align 8, !tbaa !5
  store i32 %1, ptr %5, align 4, !tbaa !16
  %9 = load ptr, ptr %4, align 8, !tbaa !5
  %10 = load i32, ptr %5, align 4, !tbaa !16
  %11 = call i32 @lua_isstring(ptr noundef %9, i32 noundef %10)
  %12 = icmp ne i32 %11, 0
  br i1 %12, label %14, label %13

13:                                               ; preds = %2
  store ptr null, ptr %3, align 8
  br label %22

14:                                               ; preds = %2
  call void @llvm.lifetime.start.p0(i64 8, ptr %6) #12
  call void @llvm.lifetime.start.p0(i64 8, ptr %7) #12
  %15 = load ptr, ptr %4, align 8, !tbaa !5
  %16 = load i32, ptr %5, align 4, !tbaa !16
  %17 = call ptr @lua_tolstring(ptr noundef %15, i32 noundef %16, ptr noundef %6)
  store ptr %17, ptr %7, align 8, !tbaa !10
  call void @llvm.lifetime.start.p0(i64 8, ptr %8) #12
  %18 = load ptr, ptr %7, align 8, !tbaa !10
  %19 = load i64, ptr %6, align 8, !tbaa !23
  %20 = call ptr @sdsnewlen(ptr noundef %18, i64 noundef %19)
  store ptr %20, ptr %8, align 8, !tbaa !10
  %21 = load ptr, ptr %8, align 8, !tbaa !10
  store ptr %21, ptr %3, align 8
  call void @llvm.lifetime.end.p0(i64 8, ptr %8) #12
  call void @llvm.lifetime.end.p0(i64 8, ptr %7) #12
  call void @llvm.lifetime.end.p0(i64 8, ptr %6) #12
  br label %22

22:                                               ; preds = %14, %13
  %23 = load ptr, ptr %3, align 8
  ret ptr %23
}