; Function Attrs: nounwind uwtable
define dso_local ptr @luaGetStringSds(ptr noundef %0, i32 noundef %1) local_unnamed_addr #0 {
  %3 = alloca i64, align 8
  %4 = tail call i32 @lua_isstring(ptr noundef %0, i32 noundef %1) #11
  %.not = icmp eq i32 %4, 0
  br i1 %.not, label %9, label %5

5:                                                ; preds = %2
  call void @llvm.lifetime.start.p0(i64 8, ptr nonnull %3) #11
  %6 = call ptr @lua_tolstring(ptr noundef %0, i32 noundef %1, ptr noundef nonnull %3) #11
  %7 = load i64, ptr %3, align 8, !tbaa !20
  %8 = call ptr @sdsnewlen(ptr noundef %6, i64 noundef %7) #11
  call void @llvm.lifetime.end.p0(i64 8, ptr nonnull %3) #11
  br label %9

9:                                                ; preds = %2, %5
  %.0 = phi ptr [ %8, %5 ], [ null, %2 ]
  ret ptr %.0
}